target datalayout = "e-m:e-p270:32:32-p271:32:32-p272:64:64-i64:64-i128:128-f80:128-n8:16:32:64-S128"
target triple = "x86_64-pc-linux-gnu"

%struct.H5FD_splitter_fapl_t = type { i64, i64, [4097 x i8], [4097 x i8], i8 }
%struct.H5FD_splitter_t = type { %struct.H5FD_t, i32, %struct.H5FD_splitter_fapl_t, ptr, ptr, ptr }
%struct.H5FD_t = type { i64, ptr, i64, i32, i64, i64, i64, i64, i64, i8 }

@H5FD_init_g = external global i8, align 1
@H5_libterm_g = external global i8, align 1
@.str = private unnamed_addr constant [106 x i8] c"generated/home/dtcxzyw/WorkSpace/Projects/compilers/llvm-opt-benchmark/bench/hdf5/hdf5/src/H5FDsplitter.c\00", align 1
@H5E_VFL_g = external global i64, align 8
@H5E_ARGS_g = external global i64, align 8
@H5E_BADTYPE_g = external global i64, align 8
@__func__.H5FD__splitter_write = private unnamed_addr constant [21 x i8] c"H5FD__splitter_write\00", align 1
@.str.59 = private unnamed_addr constant [20 x i8] c"not a property list\00", align 1
@H5E_WRITEERROR_g = external global i64, align 8
@.str.60 = private unnamed_addr constant [22 x i8] c"R/W file write failed\00", align 1
@.str.61 = private unnamed_addr constant [25 x i8] c"unable to write W/O file\00", align 1

; Function Attrs: nounwind uwtable
define internal i32 @H5FD__splitter_write(ptr noundef %0, i32 noundef %1, i64 noundef %2, i64 noundef %3, i64 noundef %4, ptr noundef %5) #0 {
  %7 = alloca ptr, align 8
  %8 = alloca i32, align 4
  %9 = alloca i64, align 8
  %10 = alloca i64, align 8
  %11 = alloca i64, align 8
  %12 = alloca ptr, align 8
  %13 = alloca ptr, align 8
  %14 = alloca ptr, align 8
  %15 = alloca i32, align 4
  %16 = alloca i8, align 1
  store ptr %0, ptr %7, align 8, !tbaa !38
  store i32 %1, ptr %8, align 4, !tbaa !3
  store i64 %2, ptr %9, align 8, !tbaa !11
  store i64 %3, ptr %10, align 8, !tbaa !11
  store i64 %4, ptr %11, align 8, !tbaa !11
  store ptr %5, ptr %12, align 8, !tbaa !47
  call void @llvm.lifetime.start.p0(i64 8, ptr %13) #10
  %17 = load ptr, ptr %7, align 8, !tbaa !38
  store ptr %17, ptr %13, align 8, !tbaa !40
  call void @llvm.lifetime.start.p0(i64 8, ptr %14) #10
  store ptr null, ptr %14, align 8, !tbaa !18
  call void @llvm.lifetime.start.p0(i64 4, ptr %15) #10
  store i32 0, ptr %15, align 4, !tbaa !3
  call void @llvm.lifetime.start.p0(i64 1, ptr %16) #10
  store i8 0, ptr %16, align 1, !tbaa !7
  %18 = load i8, ptr @H5FD_init_g, align 1, !tbaa !7, !range !9, !noundef !10
  %19 = trunc i8 %18 to i1
  br i1 %19, label %24, label %20

20:                                               ; preds = %6
  %21 = load i8, ptr @H5_libterm_g, align 1, !tbaa !7, !range !9, !noundef !10
  %22 = trunc i8 %21 to i1
  %23 = xor i1 %22, true
  br label %24

24:                                               ; preds = %20, %6
  %25 = phi i1 [ true, %6 ], [ %23, %20 ]
  %26 = xor i1 %25, true
  %27 = xor i1 %26, true
  %28 = zext i1 %27 to i32
  %29 = sext i32 %28 to i64
  %30 = call i64 @llvm.expect.i64(i64 %29, i64 1)
  %31 = icmp ne i64 %30, 0
  br i1 %31, label %32, label %128

32:                                               ; preds = %24
  %33 = load i64, ptr %9, align 8, !tbaa !11
  %34 = call ptr @H5I_object(i64 noundef %33)
  store ptr %34, ptr %14, align 8, !tbaa !18
  %35 = icmp eq ptr null, %34
  br i1 %35, label %36, label %55

36:                                               ; preds = %32
  br label %37

37:                                               ; preds = %36
  br label %38

38:                                               ; preds = %37
  br label %39

39:                                               ; preds = %38
  %40 = load i64, ptr @H5E_ARGS_g, align 8, !tbaa !11
  %41 = load i64, ptr @H5E_BADTYPE_g, align 8, !tbaa !11
  %42 = call i32 (ptr, ptr, i32, i64, i64, ptr, ...) @H5E_printf_stack(ptr noundef @.str, ptr noundef @__func__.H5FD__splitter_write, i32 noundef 632, i64 noundef %40, i64 noundef %41, ptr noundef @.str.59)
  br label %43

43:                                               ; preds = %39
  br label %44

44:                                               ; preds = %43
  store i8 1, ptr %16, align 1, !tbaa !7
  %45 = load i8, ptr %16, align 1, !tbaa !7, !range !9, !noundef !10
  %46 = trunc i8 %45 to i1
  %47 = zext i1 %46 to i8
  store i8 %47, ptr %16, align 1, !tbaa !7
  br label %48

48:                                               ; preds = %44
  br label %49

49:                                               ; preds = %48
  br label %50

50:                                               ; preds = %49
  store i32 -1, ptr %15, align 4, !tbaa !3
  br label %127

51:                                               ; No predecessors!
  br label %52

52:                                               ; preds = %51
  br label %53

53:                                               ; preds = %52
  br label %54

54:                                               ; preds = %53
  br label %55

55:                                               ; preds = %54, %32
  %56 = load ptr, ptr %13, align 8, !tbaa !40
  %57 = getelementptr inbounds nuw %struct.H5FD_splitter_t, ptr %56, i32 0, i32 3
  %58 = load ptr, ptr %57, align 8, !tbaa !42
  %59 = load i32, ptr %8, align 4, !tbaa !3
  %60 = load i64, ptr %9, align 8, !tbaa !11
  %61 = load i64, ptr %10, align 8, !tbaa !11
  %62 = load i64, ptr %11, align 8, !tbaa !11
  %63 = load ptr, ptr %12, align 8, !tbaa !47
  %64 = call i32 @H5FDwrite(ptr noundef %58, i32 noundef %59, i64 noundef %60, i64 noundef %61, i64 noundef %62, ptr noundef %63)
  %65 = icmp slt i32 %64, 0
  br i1 %65, label %66, label %85

66:                                               ; preds = %55
  br label %67

67:                                               ; preds = %66
  br label %68

68:                                               ; preds = %67
  br label %69

69:                                               ; preds = %68
  %70 = load i64, ptr @H5E_VFL_g, align 8, !tbaa !11
  %71 = load i64, ptr @H5E_WRITEERROR_g, align 8, !tbaa !11
  %72 = call i32 (ptr, ptr, i32, i64, i64, ptr, ...) @H5E_printf_stack(ptr noundef @.str, ptr noundef @__func__.H5FD__splitter_write, i32 noundef 637, i64 noundef %70, i64 noundef %71, ptr noundef @.str.60)
  br label %73

73:                                               ; preds = %69
  br label %74

74:                                               ; preds = %73
  store i8 1, ptr %16, align 1, !tbaa !7
  %75 = load i8, ptr %16, align 1, !tbaa !7, !range !9, !noundef !10
  %76 = trunc i8 %75 to i1
  %77 = zext i1 %76 to i8
  store i8 %77, ptr %16, align 1, !tbaa !7
  br label %78

78:                                               ; preds = %74
  br label %79

79:                                               ; preds = %78
  br label %80

80:                                               ; preds = %79
  store i32 -1, ptr %15, align 4, !tbaa !3
  br label %127

81:                                               ; No predecessors!
  br label %82

82:                                               ; preds = %81
  br label %83

83:                                               ; preds = %82
  br label %84

84:                                               ; preds = %83
  br label %85

85:                                               ; preds = %84, %55
  %86 = load ptr, ptr %13, align 8, !tbaa !40
  %87 = getelementptr inbounds nuw %struct.H5FD_splitter_t, ptr %86, i32 0, i32 4
  %88 = load ptr, ptr %87, align 8, !tbaa !52
  %89 = load i32, ptr %8, align 4, !tbaa !3
  %90 = load i64, ptr %9, align 8, !tbaa !11
  %91 = load i64, ptr %10, align 8, !tbaa !11
  %92 = load i64, ptr %11, align 8, !tbaa !11
  %93 = load ptr, ptr %12, align 8, !tbaa !47
  %94 = call i32 @H5FDwrite(ptr noundef %88, i32 noundef %89, i64 noundef %90, i64 noundef %91, i64 noundef %92, ptr noundef %93)
  %95 = icmp slt i32 %94, 0
  br i1 %95, label %96, label %126

96:                                               ; preds = %85
  %97 = load ptr, ptr %13, align 8, !tbaa !40
  %98 = call i32 @H5FD__splitter_log_error(ptr noundef %97, ptr noundef @__func__.H5FD__splitter_write, ptr noundef @.str.61)
  %99 = load ptr, ptr %13, align 8, !tbaa !40
  %100 = getelementptr inbounds nuw %struct.H5FD_splitter_t, ptr %99, i32 0, i32 2
  %101 = getelementptr inbounds nuw %struct.H5FD_splitter_fapl_t, ptr %100, i32 0, i32 4
  %102 = load i8, ptr %101, align 2, !tbaa !50, !range !9, !noundef !10
  %103 = trunc i8 %102 to i1
  %104 = zext i1 %103 to i32
  %105 = icmp eq i32 0, %104
  br i1 %105, label %106, label %125

106:                                              ; preds = %96
  br label %107

107:                                              ; preds = %106
  br label %108

108:                                              ; preds = %107
  br label %109

109:                                              ; preds = %108
  %110 = load i64, ptr @H5E_VFL_g, align 8, !tbaa !11
  %111 = load i64, ptr @H5E_WRITEERROR_g, align 8, !tbaa !11
  %112 = call i32 (ptr, ptr, i32, i64, i64, ptr, ...) @H5E_printf_stack(ptr noundef @.str, ptr noundef @__func__.H5FD__splitter_write, i32 noundef 639, i64 noundef %110, i64 noundef %111, ptr noundef @.str.61)
  br label %113

113:                                              ; preds = %109
  br label %114

114:                                              ; preds = %113
  store i8 1, ptr %16, align 1, !tbaa !7
  %115 = load i8, ptr %16, align 1, !tbaa !7, !range !9, !noundef !10
  %116 = trunc i8 %115 to i1
  %117 = zext i1 %116 to i8
  store i8 %117, ptr %16, align 1, !tbaa !7
  br label %118

118:                                              ; preds = %114
  br label %119

119:                                              ; preds = %118
  br label %120

120:                                              ; preds = %119
  store i32 -1, ptr %15, align 4, !tbaa !3
  br label %127

121:                                              ; No predecessors!
  br label %122

122:                                              ; preds = %121
  br label %123

123:                                              ; preds = %122
  br label %124

124:                                              ; preds = %123
  br label %125

125:                                              ; preds = %124, %96
  br label %126

126:                                              ; preds = %125, %85
  br label %127

127:                                              ; preds = %126, %120, %80, %50
  br label %128

128:                                              ; preds = %127, %24
  %129 = load i32, ptr %15, align 4, !tbaa !3
  call void @llvm.lifetime.end.p0(i64 1, ptr %16) #10
  call void @llvm.lifetime.end.p0(i64 4, ptr %15) #10
  call void @llvm.lifetime.end.p0(i64 8, ptr %14) #10
  call void @llvm.lifetime.end.p0(i64 8, ptr %13) #10
  ret i32 %129
}