; Function Attrs: nounwind uwtable
define internal range(i32 -1, 1) i32 @H5FD__splitter_write(ptr noundef readonly captures(none) %0, i32 noundef %1, i64 noundef %2, i64 noundef %3, i64 noundef %4, ptr noundef %5) #0 {
  %7 = load i8, ptr @H5FD_init_g, align 1, !tbaa !3, !range !7, !noundef !8
  %8 = trunc nuw i8 %7 to i1
  %9 = load i8, ptr @H5_libterm_g, align 1, !range !7
  %10 = trunc nuw i8 %9 to i1
  %11 = xor i1 %10, true
  %12 = select i1 %8, i1 true, i1 %11
  br i1 %12, label %13, label %42, !prof !9

13:                                               ; preds = %6
  %14 = tail call ptr @H5I_object(i64 noundef %2) #12
  %15 = icmp eq ptr %14, null
  br i1 %15, label %16, label %20

16:                                               ; preds = %13
  %17 = load i64, ptr @H5E_ARGS_g, align 8, !tbaa !10
  %18 = load i64, ptr @H5E_BADTYPE_g, align 8, !tbaa !10
  %19 = tail call i32 (ptr, ptr, i32, i64, i64, ptr, ...) @H5E_printf_stack(ptr noundef nonnull @.str, ptr noundef nonnull @__func__.H5FD__splitter_write, i32 noundef 632, i64 noundef %17, i64 noundef %18, ptr noundef nonnull @.str.59) #12
  br label %42

20:                                               ; preds = %13
  %21 = getelementptr inbounds nuw i8, ptr %0, i64 8304
  %22 = load ptr, ptr %21, align 8, !tbaa !33
  %23 = tail call i32 @H5FDwrite(ptr noundef %22, i32 noundef %1, i64 noundef %2, i64 noundef %3, i64 noundef %4, ptr noundef %5) #12
  %24 = icmp slt i32 %23, 0
  br i1 %24, label %25, label %29

25:                                               ; preds = %20
  %26 = load i64, ptr @H5E_VFL_g, align 8, !tbaa !10
  %27 = load i64, ptr @H5E_WRITEERROR_g, align 8, !tbaa !10
  %28 = tail call i32 (ptr, ptr, i32, i64, i64, ptr, ...) @H5E_printf_stack(ptr noundef nonnull @.str, ptr noundef nonnull @__func__.H5FD__splitter_write, i32 noundef 637, i64 noundef %26, i64 noundef %27, ptr noundef nonnull @.str.60) #12
  br label %42

29:                                               ; preds = %20
  %30 = getelementptr inbounds nuw i8, ptr %0, i64 8312
  %31 = load ptr, ptr %30, align 8, !tbaa !43
  %32 = tail call i32 @H5FDwrite(ptr noundef %31, i32 noundef %1, i64 noundef %2, i64 noundef %3, i64 noundef %4, ptr noundef %5) #12
  %33 = icmp slt i32 %32, 0
  br i1 %33, label %34, label %42

34:                                               ; preds = %29
  tail call fastcc void @H5FD__splitter_log_error(ptr noundef nonnull %0, ptr noundef nonnull @__func__.H5FD__splitter_write, ptr noundef nonnull @.str.61)
  %35 = getelementptr inbounds nuw i8, ptr %0, i64 8298
  %36 = load i8, ptr %35, align 2, !tbaa !39, !range !7, !noundef !8
  %37 = icmp eq i8 %36, 0
  br i1 %37, label %38, label %42

38:                                               ; preds = %34
  %39 = load i64, ptr @H5E_VFL_g, align 8, !tbaa !10
  %40 = load i64, ptr @H5E_WRITEERROR_g, align 8, !tbaa !10
  %41 = tail call i32 (ptr, ptr, i32, i64, i64, ptr, ...) @H5E_printf_stack(ptr noundef nonnull @.str, ptr noundef nonnull @__func__.H5FD__splitter_write, i32 noundef 639, i64 noundef %39, i64 noundef %40, ptr noundef nonnull @.str.61) #12
  br label %42

42:                                               ; preds = %16, %25, %38, %34, %29, %6
  %.0 = phi i32 [ -1, %16 ], [ -1, %25 ], [ -1, %38 ], [ 0, %34 ], [ 0, %29 ], [ 0, %6 ]
  ret i32 %.0
}